target datalayout = "e-m:e-p270:32:32-p271:32:32-p272:64:64-i64:64-i128:128-f80:128-n8:16:32:64-S128"
target triple = "x86_64-pc-linux-gnu"

%struct.hwloc_tma = type { ptr, ptr, i32 }
%struct.hwloc_shmem_header = type { i32, i32, i64, i64 }

; Function Attrs: nounwind uwtable
define i32 @hwloc_shmem_topology_write(ptr noundef %0, i32 noundef %1, i64 noundef %2, ptr noundef %3, i64 noundef %4, i64 noundef %5) #0 {
  %7 = alloca i32, align 4
  %8 = alloca ptr, align 8
  %9 = alloca i32, align 4
  %10 = alloca i64, align 8
  %11 = alloca ptr, align 8
  %12 = alloca i64, align 8
  %13 = alloca i64, align 8
  %14 = alloca ptr, align 8
  %15 = alloca %struct.hwloc_tma, align 8
  %16 = alloca %struct.hwloc_shmem_header, align 8
  %17 = alloca i32, align 4
  %18 = alloca ptr, align 8
  %19 = alloca i32, align 4
  %20 = alloca i32, align 4
  store ptr %0, ptr %8, align 8, !tbaa !3
  store i32 %1, ptr %9, align 4, !tbaa !12
  store i64 %2, ptr %10, align 8, !tbaa !10
  store ptr %3, ptr %11, align 8, !tbaa !20
  store i64 %4, ptr %12, align 8, !tbaa !10
  store i64 %5, ptr %13, align 8, !tbaa !10
  call void @llvm.lifetime.start.p0(i64 8, ptr %14) #7
  call void @llvm.lifetime.start.p0(i64 24, ptr %15) #7
  call void @llvm.lifetime.start.p0(i64 24, ptr %16) #7
  call void @llvm.lifetime.start.p0(i64 4, ptr %17) #7
  store i32 24, ptr %17, align 4, !tbaa !12
  call void @llvm.lifetime.start.p0(i64 8, ptr %18) #7
  call void @llvm.lifetime.start.p0(i64 4, ptr %19) #7
  %21 = load i64, ptr %13, align 8, !tbaa !10
  %22 = icmp ne i64 %21, 0
  br i1 %22, label %23, label %25

23:                                               ; preds = %6
  %24 = call ptr @__errno_location() #8
  store i32 22, ptr %24, align 4, !tbaa !12
  store i32 -1, ptr %7, align 4
  store i32 1, ptr %20, align 4
  br label %98

25:                                               ; preds = %6
  %26 = load ptr, ptr %8, align 8, !tbaa !3
  call void @hwloc_internal_distances_refresh(ptr noundef %26)
  %27 = load ptr, ptr %8, align 8, !tbaa !3
  call void @hwloc_internal_memattrs_refresh(ptr noundef %27)
  %28 = getelementptr inbounds nuw %struct.hwloc_shmem_header, ptr %16, i32 0, i32 0
  store i32 1, ptr %28, align 8, !tbaa !21
  %29 = load i32, ptr %17, align 4, !tbaa !12
  %30 = getelementptr inbounds nuw %struct.hwloc_shmem_header, ptr %16, i32 0, i32 1
  store i32 %29, ptr %30, align 4, !tbaa !23
  %31 = load ptr, ptr %11, align 8, !tbaa !20
  %32 = ptrtoint ptr %31 to i64
  %33 = getelementptr inbounds nuw %struct.hwloc_shmem_header, ptr %16, i32 0, i32 2
  store i64 %32, ptr %33, align 8, !tbaa !24
  %34 = load i64, ptr %12, align 8, !tbaa !10
  %35 = getelementptr inbounds nuw %struct.hwloc_shmem_header, ptr %16, i32 0, i32 3
  store i64 %34, ptr %35, align 8, !tbaa !25
  %36 = load i32, ptr %9, align 4, !tbaa !12
  %37 = load i64, ptr %10, align 8, !tbaa !10
  %38 = call i64 @lseek(i32 noundef %36, i64 noundef %37, i32 noundef 0) #7
  %39 = trunc i64 %38 to i32
  store i32 %39, ptr %19, align 4, !tbaa !12
  %40 = load i32, ptr %19, align 4, !tbaa !12
  %41 = icmp slt i32 %40, 0
  br i1 %41, label %42, label %43

42:                                               ; preds = %25
  store i32 -1, ptr %7, align 4
  store i32 1, ptr %20, align 4
  br label %98

43:                                               ; preds = %25
  %44 = load i32, ptr %9, align 4, !tbaa !12
  %45 = call i64 @write(i32 noundef %44, ptr noundef %16, i64 noundef 24)
  %46 = trunc i64 %45 to i32
  store i32 %46, ptr %19, align 4, !tbaa !12
  %47 = load i32, ptr %19, align 4, !tbaa !12
  %48 = sext i32 %47 to i64
  %49 = icmp ne i64 %48, 24
  br i1 %49, label %50, label %51

50:                                               ; preds = %43
  store i32 -1, ptr %7, align 4
  store i32 1, ptr %20, align 4
  br label %98

51:                                               ; preds = %43
  %52 = load i32, ptr %9, align 4, !tbaa !12
  %53 = load i64, ptr %10, align 8, !tbaa !10
  %54 = load i64, ptr %12, align 8, !tbaa !10
  %55 = add i64 %53, %54
  %56 = call i32 @ftruncate(i32 noundef %52, i64 noundef %55) #7
  store i32 %56, ptr %19, align 4, !tbaa !12
  %57 = load i32, ptr %19, align 4, !tbaa !12
  %58 = icmp slt i32 %57, 0
  br i1 %58, label %59, label %60

59:                                               ; preds = %51
  store i32 -1, ptr %7, align 4
  store i32 1, ptr %20, align 4
  br label %98

60:                                               ; preds = %51
  %61 = load ptr, ptr %11, align 8, !tbaa !20
  %62 = load i64, ptr %12, align 8, !tbaa !10
  %63 = load i32, ptr %9, align 4, !tbaa !12
  %64 = load i64, ptr %10, align 8, !tbaa !10
  %65 = call ptr @mmap(ptr noundef %61, i64 noundef %62, i32 noundef 3, i32 noundef 1, i32 noundef %63, i64 noundef %64) #7
  store ptr %65, ptr %18, align 8, !tbaa !20
  %66 = load ptr, ptr %18, align 8, !tbaa !20
  %67 = icmp eq ptr %66, inttoptr (i64 -1 to ptr)
  br i1 %67, label %68, label %69

68:                                               ; preds = %60
  store i32 -1, ptr %7, align 4
  store i32 1, ptr %20, align 4
  br label %98

69:                                               ; preds = %60
  %70 = load ptr, ptr %18, align 8, !tbaa !20
  %71 = load ptr, ptr %11, align 8, !tbaa !20
  %72 = icmp ne ptr %70, %71
  br i1 %72, label %73, label %78

73:                                               ; preds = %69
  %74 = load ptr, ptr %18, align 8, !tbaa !20
  %75 = load i64, ptr %12, align 8, !tbaa !10
  %76 = call i32 @munmap(ptr noundef %74, i64 noundef %75) #7
  %77 = call ptr @__errno_location() #8
  store i32 16, ptr %77, align 4, !tbaa !12
  store i32 -1, ptr %7, align 4
  store i32 1, ptr %20, align 4
  br label %98

78:                                               ; preds = %69
  %79 = getelementptr inbounds nuw %struct.hwloc_tma, ptr %15, i32 0, i32 0
  store ptr @tma_shmem_malloc, ptr %79, align 8, !tbaa !14
  %80 = getelementptr inbounds nuw %struct.hwloc_tma, ptr %15, i32 0, i32 2
  store i32 1, ptr %80, align 8, !tbaa !16
  %81 = load ptr, ptr %18, align 8, !tbaa !20
  %82 = load i32, ptr %17, align 4, !tbaa !12
  %83 = zext i32 %82 to i64
  %84 = getelementptr inbounds nuw i8, ptr %81, i64 %83
  %85 = getelementptr inbounds nuw %struct.hwloc_tma, ptr %15, i32 0, i32 1
  store ptr %84, ptr %85, align 8, !tbaa !17
  %86 = load ptr, ptr %8, align 8, !tbaa !3
  %87 = call i32 @hwloc__topology_dup(ptr noundef %14, ptr noundef %86, ptr noundef %15)
  store i32 %87, ptr %19, align 4, !tbaa !12
  %88 = load i32, ptr %19, align 4, !tbaa !12
  %89 = icmp slt i32 %88, 0
  br i1 %89, label %90, label %92

90:                                               ; preds = %78
  %91 = load i32, ptr %19, align 4, !tbaa !12
  store i32 %91, ptr %7, align 4
  store i32 1, ptr %20, align 4
  br label %98

92:                                               ; preds = %78
  %93 = load ptr, ptr %14, align 8, !tbaa !3
  call void @hwloc_internal_distances_refresh(ptr noundef %93)
  %94 = load ptr, ptr %8, align 8, !tbaa !3
  call void @hwloc_internal_memattrs_refresh(ptr noundef %94)
  %95 = load ptr, ptr %11, align 8, !tbaa !20
  %96 = load i64, ptr %12, align 8, !tbaa !10
  %97 = call i32 @munmap(ptr noundef %95, i64 noundef %96) #7
  call void @hwloc_components_fini()
  store i32 0, ptr %7, align 4
  store i32 1, ptr %20, align 4
  br label %98

98:                                               ; preds = %92, %90, %73, %68, %59, %50, %42, %23
  call void @llvm.lifetime.end.p0(i64 4, ptr %19) #7
  call void @llvm.lifetime.end.p0(i64 8, ptr %18) #7
  call void @llvm.lifetime.end.p0(i64 4, ptr %17) #7
  call void @llvm.lifetime.end.p0(i64 24, ptr %16) #7
  call void @llvm.lifetime.end.p0(i64 24, ptr %15) #7
  call void @llvm.lifetime.end.p0(i64 8, ptr %14) #7
  %99 = load i32, ptr %7, align 4
  ret i32 %99
}