; Function Attrs: nounwind uwtable
define range(i32 -2147483648, 1) i32 @hwloc_shmem_topology_write(ptr noundef %0, i32 noundef %1, i64 noundef %2, ptr noundef %3, i64 noundef %4, i64 noundef %5) local_unnamed_addr #0 {
  %7 = alloca ptr, align 8
  %8 = alloca %struct.hwloc_tma, align 8
  %9 = alloca %struct.hwloc_shmem_header, align 8
  call void @llvm.lifetime.start.p0(i64 8, ptr nonnull %7) #13
  call void @llvm.lifetime.start.p0(i64 24, ptr nonnull %8) #13
  call void @llvm.lifetime.start.p0(i64 24, ptr nonnull %9) #13
  %.not = icmp eq i64 %5, 0
  br i1 %.not, label %12, label %10

10:                                               ; preds = %6
  %11 = tail call ptr @__errno_location() #14
  store i32 22, ptr %11, align 4, !tbaa !7
  br label %41

12:                                               ; preds = %6
  tail call void @hwloc_internal_distances_refresh(ptr noundef %0) #13
  tail call void @hwloc_internal_memattrs_refresh(ptr noundef %0) #13
  store i32 1, ptr %9, align 8, !tbaa !16
  %13 = getelementptr inbounds nuw i8, ptr %9, i64 4
  store i32 24, ptr %13, align 4, !tbaa !18
  %14 = ptrtoint ptr %3 to i64
  %15 = getelementptr inbounds nuw i8, ptr %9, i64 8
  store i64 %14, ptr %15, align 8, !tbaa !19
  %16 = getelementptr inbounds nuw i8, ptr %9, i64 16
  store i64 %4, ptr %16, align 8, !tbaa !20
  %17 = tail call i64 @lseek(i32 noundef %1, i64 noundef %2, i32 noundef 0) #13
  %18 = and i64 %17, 2147483648
  %.not35 = icmp eq i64 %18, 0
  br i1 %.not35, label %19, label %41

19:                                               ; preds = %12
  %20 = call i64 @write(i32 noundef %1, ptr noundef nonnull %9, i64 noundef 24) #13
  %sext.mask = and i64 %20, 4294967295
  %.not36 = icmp eq i64 %sext.mask, 24
  br i1 %.not36, label %21, label %41

21:                                               ; preds = %19
  %22 = add i64 %4, %2
  %23 = tail call i32 @ftruncate(i32 noundef %1, i64 noundef %22) #13
  %24 = icmp slt i32 %23, 0
  br i1 %24, label %41, label %25

25:                                               ; preds = %21
  %26 = tail call ptr @mmap(ptr noundef %3, i64 noundef %4, i32 noundef 3, i32 noundef 1, i32 noundef %1, i64 noundef %2) #13
  %27 = icmp eq ptr %26, inttoptr (i64 -1 to ptr)
  br i1 %27, label %41, label %28

28:                                               ; preds = %25
  %.not37 = icmp eq ptr %26, %3
  br i1 %.not37, label %32, label %29

29:                                               ; preds = %28
  %30 = tail call i32 @munmap(ptr noundef %26, i64 noundef %4) #13
  %31 = tail call ptr @__errno_location() #14
  store i32 16, ptr %31, align 4, !tbaa !7
  br label %41

32:                                               ; preds = %28
  store ptr @tma_shmem_malloc, ptr %8, align 8, !tbaa !9
  %33 = getelementptr inbounds nuw i8, ptr %8, i64 16
  store i32 1, ptr %33, align 8, !tbaa !12
  %34 = getelementptr inbounds nuw i8, ptr %26, i64 24
  %35 = getelementptr inbounds nuw i8, ptr %8, i64 8
  store ptr %34, ptr %35, align 8, !tbaa !13
  %36 = call i32 @hwloc__topology_dup(ptr noundef nonnull %7, ptr noundef %0, ptr noundef nonnull %8) #13
  %37 = icmp slt i32 %36, 0
  br i1 %37, label %41, label %38

38:                                               ; preds = %32
  %39 = load ptr, ptr %7, align 8, !tbaa !14
  call void @hwloc_internal_distances_refresh(ptr noundef %39) #13
  call void @hwloc_internal_memattrs_refresh(ptr noundef %0) #13
  %40 = call i32 @munmap(ptr noundef %3, i64 noundef %4) #13
  call void @hwloc_components_fini() #13
  br label %41

41:                                               ; preds = %32, %25, %21, %19, %12, %38, %29, %10
  %.0 = phi i32 [ -1, %10 ], [ -1, %29 ], [ 0, %38 ], [ -1, %12 ], [ -1, %19 ], [ -1, %21 ], [ -1, %25 ], [ %36, %32 ]
  call void @llvm.lifetime.end.p0(i64 24, ptr nonnull %9) #13
  call void @llvm.lifetime.end.p0(i64 24, ptr nonnull %8) #13
  call void @llvm.lifetime.end.p0(i64 8, ptr nonnull %7) #13
  ret i32 %.0
}